; Function Attrs: mustprogress nounwind uwtable
define dso_local noundef nonnull align 8 dereferenceable(8) ptr @_ZN4nodelsERSoRKSt6vectorINS_8PropInfoESaIS2_EE(ptr noundef nonnull returned align 8 dereferenceable(8) %output, ptr nocapture noundef nonnull readonly align 8 dereferenceable(24) %vec) local_unnamed_addr #3 {
entry:
  %call = tail call noundef nonnull align 8 dereferenceable(8) ptr @_ZStlsISt11char_traitsIcEERSt13basic_ostreamIcT_ES5_PKc(ptr noundef nonnull align 8 dereferenceable(8) %output, ptr noundef nonnull @.str.3) #23
  %0 = load ptr, ptr %vec, align 8
  %_M_finish.i = getelementptr inbounds i8, ptr %vec, i64 8
  %1 = load ptr, ptr %_M_finish.i, align 8
  %cmp.i.not7 = icmp eq ptr %0, %1
  br i1 %cmp.i.not7, label %for.end, label %for.body

for.body:                                         ; preds = %entry, %for.body
  %__begin1.sroa.0.08 = phi ptr [ %incdec.ptr.i, %for.body ], [ %0, %entry ]
  %call6 = tail call noundef nonnull align 8 dereferenceable(8) ptr @_ZStlsISt11char_traitsIcEERSt13basic_ostreamIcT_ES5_PKc(ptr noundef nonnull align 8 dereferenceable(8) %output, ptr noundef nonnull @.str.7) #23
  %call7 = tail call noundef nonnull align 8 dereferenceable(8) ptr @_ZN4nodelsERSoRKNS_8PropInfoE(ptr noundef nonnull align 8 dereferenceable(8) %call6, ptr noundef nonnull align 8 dereferenceable(48) %__begin1.sroa.0.08)
  %call8 = tail call noundef nonnull align 8 dereferenceable(8) ptr @_ZStlsISt11char_traitsIcEERSt13basic_ostreamIcT_ES5_PKc(ptr noundef nonnull align 8 dereferenceable(8) %call6, ptr noundef nonnull @.str.8) #23
  %incdec.ptr.i = getelementptr inbounds i8, ptr %__begin1.sroa.0.08, i64 48
  %cmp.i.not = icmp eq ptr %incdec.ptr.i, %1
  br i1 %cmp.i.not, label %for.end, label %for.body

for.end:                                          ; preds = %for.body, %entry
  %call10 = tail call noundef nonnull align 8 dereferenceable(8) ptr @_ZStlsISt11char_traitsIcEERSt13basic_ostreamIcT_ES5_PKc(ptr noundef nonnull align 8 dereferenceable(8) %output, ptr noundef nonnull @.str.6) #23
  ret ptr %output
}